; Function Attrs: mustprogress nofree norecurse nosync nounwind willreturn memory(argmem: readwrite) uwtable
define internal noundef zeroext i1 @"_ZNSt17_Function_handlerIFN5vcpkg8OptionalINSt7__cxx1112basic_stringIcSt11char_traitsIcESaIcEEEEENS0_11ZStringViewEEZNS0_17VcpkgCmdArguments27imbue_from_fake_environmentERKSt3mapINS0_13StringLiteralES7_St4lessIvESaISt4pairIKSD_S7_EEEE3$_0E10_M_managerERSt9_Any_dataRKSP_St18_Manager_operation"(ptr noundef nonnull writeonly align 8 captures(none) dereferenceable(16) %0, ptr noundef nonnull align 8 dereferenceable(16) %1, i32 noundef %2) #22 align 2 personality ptr @__gxx_personality_v0 {
  switch i32 %2, label %"_ZNSt14_Function_base13_Base_managerIZN5vcpkg17VcpkgCmdArguments27imbue_from_fake_environmentERKSt3mapINS1_13StringLiteralENSt7__cxx1112basic_stringIcSt11char_traitsIcESaIcEEESt4lessIvESaISt4pairIKS4_SA_EEEE3$_0E10_M_managerERSt9_Any_dataRKSM_St18_Manager_operation.exit" [
    i32 0, label %4
    i32 1, label %5
    i32 2, label %6
  ]

4:                                                ; preds = %3
  store ptr @"_ZTIZN5vcpkg17VcpkgCmdArguments27imbue_from_fake_environmentERKSt3mapINS_13StringLiteralENSt7__cxx1112basic_stringIcSt11char_traitsIcESaIcEEESt4lessIvESaISt4pairIKS2_S8_EEEE3$_0", ptr %0, align 8, !tbaa !591
  br label %"_ZNSt14_Function_base13_Base_managerIZN5vcpkg17VcpkgCmdArguments27imbue_from_fake_environmentERKSt3mapINS1_13StringLiteralENSt7__cxx1112basic_stringIcSt11char_traitsIcESaIcEEESt4lessIvESaISt4pairIKS4_SA_EEEE3$_0E10_M_managerERSt9_Any_dataRKSM_St18_Manager_operation.exit"

5:                                                ; preds = %3
  store ptr %1, ptr %0, align 8, !tbaa !218
  br label %"_ZNSt14_Function_base13_Base_managerIZN5vcpkg17VcpkgCmdArguments27imbue_from_fake_environmentERKSt3mapINS1_13StringLiteralENSt7__cxx1112basic_stringIcSt11char_traitsIcESaIcEEESt4lessIvESaISt4pairIKS4_SA_EEEE3$_0E10_M_managerERSt9_Any_dataRKSM_St18_Manager_operation.exit"

6:                                                ; preds = %3
  %.val.i = load i64, ptr %1, align 8, !tbaa !315
  store i64 %.val.i, ptr %0, align 8, !tbaa !315
  br label %"_ZNSt14_Function_base13_Base_managerIZN5vcpkg17VcpkgCmdArguments27imbue_from_fake_environmentERKSt3mapINS1_13StringLiteralENSt7__cxx1112basic_stringIcSt11char_traitsIcESaIcEEESt4lessIvESaISt4pairIKS4_SA_EEEE3$_0E10_M_managerERSt9_Any_dataRKSM_St18_Manager_operation.exit"

"_ZNSt14_Function_base13_Base_managerIZN5vcpkg17VcpkgCmdArguments27imbue_from_fake_environmentERKSt3mapINS1_13StringLiteralENSt7__cxx1112basic_stringIcSt11char_traitsIcESaIcEEESt4lessIvESaISt4pairIKS4_SA_EEEE3$_0E10_M_managerERSt9_Any_dataRKSM_St18_Manager_operation.exit": ; preds = %3, %6, %5, %4
  ret i1 false
}